; Function Attrs: nounwind uwtable
define internal ptr @async_gen_aclose(ptr noundef %0, ptr readnone captures(none) %1) #2 {
  %3 = tail call fastcc i32 @async_gen_init_hooks(ptr noundef %0)
  %.not = icmp eq i32 %3, 0
  br i1 %.not, label %4, label %async_gen_athrow_new.exit

4:                                                ; preds = %2
  %5 = tail call ptr @_PyObject_GC_New(ptr noundef nonnull @_PyAsyncGenAThrow_Type) #8
  %6 = icmp eq ptr %5, null
  br i1 %6, label %async_gen_athrow_new.exit, label %7

7:                                                ; preds = %4
  %8 = load i32, ptr %0, align 8, !tbaa !4
  %9 = icmp slt i32 %8, 0
  br i1 %9, label %_Py_NewRef.exit.i, label %10

10:                                               ; preds = %7
  %11 = add nuw i32 %8, 1
  store i32 %11, ptr %0, align 8, !tbaa !4
  br label %_Py_NewRef.exit.i

_Py_NewRef.exit.i:                                ; preds = %10, %7
  %12 = getelementptr inbounds nuw i8, ptr %5, i64 16
  store ptr %0, ptr %12, align 8, !tbaa !173
  %13 = getelementptr inbounds nuw i8, ptr %5, i64 24
  store ptr null, ptr %13, align 8, !tbaa !175
  %14 = getelementptr inbounds nuw i8, ptr %5, i64 32
  store i32 0, ptr %14, align 8, !tbaa !176
  %15 = getelementptr i8, ptr %5, i64 -16
  %16 = tail call align 8 ptr @llvm.threadlocal.address.p0(ptr align 8 @_Py_tss_tstate)
  %17 = load ptr, ptr %16, align 8, !tbaa !39
  %18 = getelementptr inbounds nuw i8, ptr %17, i64 16
  %19 = load ptr, ptr %18, align 8, !tbaa !41
  %20 = getelementptr inbounds nuw i8, ptr %19, i64 7424
  %21 = getelementptr inbounds nuw i8, ptr %19, i64 7432
  %22 = load i64, ptr %21, align 8, !tbaa !35
  %23 = inttoptr i64 %22 to ptr
  %24 = ptrtoint ptr %15 to i64
  %25 = load i64, ptr %23, align 8, !tbaa !37
  %26 = and i64 %25, 3
  %27 = or i64 %26, %24
  store i64 %27, ptr %23, align 8, !tbaa !37
  %28 = getelementptr i8, ptr %5, i64 -8
  %29 = load i64, ptr %28, align 8, !tbaa !35
  %30 = and i64 %29, 3
  %31 = or i64 %30, %22
  store i64 %31, ptr %28, align 8, !tbaa !35
  %32 = getelementptr inbounds nuw i8, ptr %19, i64 7632
  %33 = load i32, ptr %32, align 8, !tbaa !47
  %34 = xor i32 %33, 1
  %35 = sext i32 %34 to i64
  %36 = ptrtoint ptr %20 to i64
  %37 = or i64 %35, %36
  store i64 %37, ptr %15, align 8, !tbaa !37
  store i64 %24, ptr %21, align 8, !tbaa !35
  br label %async_gen_athrow_new.exit

async_gen_athrow_new.exit:                        ; preds = %_Py_NewRef.exit.i, %4, %2
  %.0 = phi ptr [ null, %2 ], [ null, %4 ], [ %5, %_Py_NewRef.exit.i ]
  ret ptr %.0
}